; Function Attrs: mustprogress uwtable
define hidden noundef zeroext i1 @_ZN19ng_push_app_ite_cfg9is_targetEP9func_decljPKP4expr(ptr noundef nonnull readonly align 8 captures(none) dereferenceable(17) %0, ptr noundef readonly captures(none) %1, i32 noundef %2, ptr noundef readonly captures(none) %3) unnamed_addr #3 align 2 {
  %5 = getelementptr inbounds nuw i8, ptr %0, i64 8
  %6 = getelementptr inbounds nuw i8, ptr %1, i64 24
  %7 = load ptr, ptr %6, align 8, !tbaa !3
  %8 = icmp eq ptr %7, null
  br i1 %8, label %.preheader.i, label %_ZNK4decl13get_family_idEv.exit.thread.i.i.i

_ZNK4decl13get_family_idEv.exit.thread.i.i.i:     ; preds = %4
  %9 = load i32, ptr %7, align 8, !tbaa !13
  %10 = icmp eq i32 %9, 0
  br i1 %10, label %11, label %.preheader.i

11:                                               ; preds = %_ZNK4decl13get_family_idEv.exit.thread.i.i.i
  %12 = getelementptr inbounds nuw i8, ptr %7, i64 4
  %13 = load i32, ptr %12, align 4, !tbaa !18
  %14 = icmp eq i32 %13, 4
  %.not16.i = icmp eq i32 %2, 0
  %or.cond.i = or i1 %.not16.i, %14
  br i1 %or.cond.i, label %_ZN16push_app_ite_cfg9is_targetEP9func_decljPKP4expr.exit.thread14, label %.lr.ph.i

.preheader.i:                                     ; preds = %_ZNK4decl13get_family_idEv.exit.thread.i.i.i, %4
  %.not16.old.i = icmp eq i32 %2, 0
  br i1 %.not16.old.i, label %_ZN16push_app_ite_cfg9is_targetEP9func_decljPKP4expr.exit.thread14, label %.lr.ph.i

.lr.ph.i:                                         ; preds = %.preheader.i, %11
  %15 = getelementptr inbounds nuw i8, ptr %0, i64 16
  %wide.trip.count.i = zext i32 %2 to i64
  br label %16

16:                                               ; preds = %_ZNK11ast_manager6is_iteEPK4expr.exit.thread.i, %.lr.ph.i
  %indvars.iv.i = phi i64 [ 0, %.lr.ph.i ], [ %indvars.iv.next.i, %_ZNK11ast_manager6is_iteEPK4expr.exit.thread.i ]
  %.01317.i = phi i8 [ 0, %.lr.ph.i ], [ %.1.i, %_ZNK11ast_manager6is_iteEPK4expr.exit.thread.i ]
  %17 = getelementptr inbounds nuw ptr, ptr %3, i64 %indvars.iv.i
  %18 = load ptr, ptr %17, align 8, !tbaa !19
  %19 = getelementptr inbounds nuw i8, ptr %18, i64 4
  %20 = load i32, ptr %19, align 4
  %21 = and i32 %20, 65535
  %22 = icmp eq i32 %21, 0
  br i1 %22, label %23, label %_ZNK11ast_manager6is_iteEPK4expr.exit.thread.i

23:                                               ; preds = %16
  %24 = getelementptr inbounds nuw i8, ptr %18, i64 16
  %25 = load ptr, ptr %24, align 8, !tbaa !21
  %26 = getelementptr inbounds nuw i8, ptr %25, i64 24
  %27 = load ptr, ptr %26, align 8, !tbaa !3
  %.not.i.i.i.i.i = icmp eq ptr %27, null
  br i1 %.not.i.i.i.i.i, label %_ZNK11ast_manager6is_iteEPK4expr.exit.thread.i, label %_ZNK11ast_manager6is_iteEPK4expr.exit.i

_ZNK11ast_manager6is_iteEPK4expr.exit.i:          ; preds = %23
  %28 = load i32, ptr %27, align 8, !tbaa !13
  %29 = icmp eq i32 %28, 0
  %30 = getelementptr inbounds nuw i8, ptr %27, i64 4
  %31 = load i32, ptr %30, align 4
  %32 = icmp eq i32 %31, 4
  %33 = select i1 %29, i1 %32, i1 false
  br i1 %33, label %34, label %_ZNK11ast_manager6is_iteEPK4expr.exit.thread.i

34:                                               ; preds = %_ZNK11ast_manager6is_iteEPK4expr.exit.i
  %35 = load ptr, ptr %5, align 8, !tbaa !26
  %36 = tail call noundef zeroext i1 @_ZNK11ast_manager7is_boolEPK4expr(ptr noundef nonnull align 8 dereferenceable(976) %35, ptr noundef nonnull %18)
  br i1 %36, label %_ZNK11ast_manager6is_iteEPK4expr.exit.thread.i, label %37

37:                                               ; preds = %34
  %38 = trunc nuw i8 %.01317.i to i1
  br i1 %38, label %39, label %_ZNK11ast_manager6is_iteEPK4expr.exit.thread.i

39:                                               ; preds = %37
  %40 = load i8, ptr %15, align 8, !tbaa !29, !range !30, !noundef !31
  %41 = trunc nuw i8 %40 to i1
  br i1 %41, label %_ZN16push_app_ite_cfg9is_targetEP9func_decljPKP4expr.exit.thread14, label %_ZNK11ast_manager6is_iteEPK4expr.exit.thread.i

_ZNK11ast_manager6is_iteEPK4expr.exit.thread.i:   ; preds = %39, %37, %34, %_ZNK11ast_manager6is_iteEPK4expr.exit.i, %23, %16
  %.1.i = phi i8 [ %.01317.i, %34 ], [ 1, %39 ], [ %.01317.i, %_ZNK11ast_manager6is_iteEPK4expr.exit.i ], [ 1, %37 ], [ %.01317.i, %16 ], [ %.01317.i, %23 ]
  %indvars.iv.next.i = add nuw nsw i64 %indvars.iv.i, 1
  %exitcond.not.i = icmp eq i64 %indvars.iv.next.i, %wide.trip.count.i
  br i1 %exitcond.not.i, label %_ZN16push_app_ite_cfg9is_targetEP9func_decljPKP4expr.exit, label %16, !llvm.loop !32

_ZN16push_app_ite_cfg9is_targetEP9func_decljPKP4expr.exit: ; preds = %_ZNK11ast_manager6is_iteEPK4expr.exit.thread.i
  %42 = trunc nuw i8 %.1.i to i1
  %.not19 = icmp ne i32 %2, 0
  %or.cond = and i1 %.not19, %42
  br i1 %or.cond, label %.lr.ph, label %_ZN16push_app_ite_cfg9is_targetEP9func_decljPKP4expr.exit.thread14

43:                                               ; preds = %_Z9is_groundPK4expr.exit
  %indvars.iv.next = add nuw nsw i64 %indvars.iv, 1
  %exitcond.not = icmp eq i64 %indvars.iv.next, %wide.trip.count.i
  br i1 %exitcond.not, label %_ZN16push_app_ite_cfg9is_targetEP9func_decljPKP4expr.exit.thread14, label %.lr.ph, !llvm.loop !109

.lr.ph:                                           ; preds = %_ZN16push_app_ite_cfg9is_targetEP9func_decljPKP4expr.exit, %43
  %indvars.iv = phi i64 [ %indvars.iv.next, %43 ], [ 0, %_ZN16push_app_ite_cfg9is_targetEP9func_decljPKP4expr.exit ]
  %44 = getelementptr inbounds nuw ptr, ptr %3, i64 %indvars.iv
  %45 = load ptr, ptr %44, align 8, !tbaa !19
  %46 = getelementptr inbounds nuw i8, ptr %45, i64 4
  %47 = load i32, ptr %46, align 4
  %48 = and i32 %47, 65535
  %49 = icmp eq i32 %48, 0
  br i1 %49, label %_Z9is_groundPK4expr.exit, label %_ZN16push_app_ite_cfg9is_targetEP9func_decljPKP4expr.exit.thread14

_Z9is_groundPK4expr.exit:                         ; preds = %.lr.ph
  %50 = getelementptr inbounds nuw i8, ptr %45, i64 30
  %51 = load i8, ptr %50, align 2
  %52 = and i8 %51, 1
  %.not17 = icmp eq i8 %52, 0
  br i1 %.not17, label %_ZN16push_app_ite_cfg9is_targetEP9func_decljPKP4expr.exit.thread14, label %43

_ZN16push_app_ite_cfg9is_targetEP9func_decljPKP4expr.exit.thread14: ; preds = %39, %_Z9is_groundPK4expr.exit, %43, %.lr.ph, %.preheader.i, %11, %_ZN16push_app_ite_cfg9is_targetEP9func_decljPKP4expr.exit
  %.012 = phi i1 [ false, %_ZN16push_app_ite_cfg9is_targetEP9func_decljPKP4expr.exit ], [ false, %11 ], [ false, %.preheader.i ], [ true, %_Z9is_groundPK4expr.exit ], [ false, %43 ], [ true, %.lr.ph ], [ false, %39 ]
  ret i1 %.012
}